target datalayout = "e-m:e-p270:32:32-p271:32:32-p272:64:64-i64:64-i128:128-f80:128-n8:16:32:64-S128"
target triple = "x86_64-pc-linux-gnu"

; Function Attrs: inlinehint nounwind uwtable
define internal i64 @Abc_Tt6Mask(i32 noundef %0) #2 {
  %2 = alloca i32, align 4
  store i32 %0, ptr %2, align 4, !tbaa !10
  %3 = load i32, ptr %2, align 4, !tbaa !10
  %4 = sub nsw i32 64, %3
  %5 = zext i32 %4 to i64
  %6 = lshr i64 -1, %5
  ret i64 %6
}

; Function Attrs: inlinehint nounwind uwtable
define internal void @Abc_TtXor(ptr noundef %0, ptr noundef %1, ptr noundef %2, i32 noundef %3, i32 noundef %4) #2 {
  %6 = alloca ptr, align 8
  %7 = alloca ptr, align 8
  %8 = alloca ptr, align 8
  %9 = alloca i32, align 4
  %10 = alloca i32, align 4
  %11 = alloca i32, align 4
  store ptr %0, ptr %6, align 8, !tbaa !8
  store ptr %1, ptr %7, align 8, !tbaa !8
  store ptr %2, ptr %8, align 8, !tbaa !8
  store i32 %3, ptr %9, align 4, !tbaa !10
  store i32 %4, ptr %10, align 4, !tbaa !10
  call void @llvm.lifetime.start.p0(i64 4, ptr %11) #14
  %12 = load i32, ptr %10, align 4, !tbaa !10
  %13 = icmp ne i32 %12, 0
  br i1 %13, label %14, label %40

14:                                               ; preds = %5
  store i32 0, ptr %11, align 4, !tbaa !10
  br label %15

15:                                               ; preds = %36, %14
  %16 = load i32, ptr %11, align 4, !tbaa !10
  %17 = load i32, ptr %9, align 4, !tbaa !10
  %18 = icmp slt i32 %16, %17
  br i1 %18, label %19, label %39

19:                                               ; preds = %15
  %20 = load ptr, ptr %7, align 8, !tbaa !8
  %21 = load i32, ptr %11, align 4, !tbaa !10
  %22 = sext i32 %21 to i64
  %23 = getelementptr inbounds i64, ptr %20, i64 %22
  %24 = load i64, ptr %23, align 8, !tbaa !37
  %25 = load ptr, ptr %8, align 8, !tbaa !8
  %26 = load i32, ptr %11, align 4, !tbaa !10
  %27 = sext i32 %26 to i64
  %28 = getelementptr inbounds i64, ptr %25, i64 %27
  %29 = load i64, ptr %28, align 8, !tbaa !37
  %30 = xor i64 %29, -1
  %31 = xor i64 %24, %30
  %32 = load ptr, ptr %6, align 8, !tbaa !8
  %33 = load i32, ptr %11, align 4, !tbaa !10
  %34 = sext i32 %33 to i64
  %35 = getelementptr inbounds i64, ptr %32, i64 %34
  store i64 %31, ptr %35, align 8, !tbaa !37
  br label %36

36:                                               ; preds = %19
  %37 = load i32, ptr %11, align 4, !tbaa !10
  %38 = add nsw i32 %37, 1
  store i32 %38, ptr %11, align 4, !tbaa !10
  br label %15, !llvm.loop !336

39:                                               ; preds = %15
  br label %65

40:                                               ; preds = %5
  store i32 0, ptr %11, align 4, !tbaa !10
  br label %41

41:                                               ; preds = %61, %40
  %42 = load i32, ptr %11, align 4, !tbaa !10
  %43 = load i32, ptr %9, align 4, !tbaa !10
  %44 = icmp slt i32 %42, %43
  br i1 %44, label %45, label %64

45:                                               ; preds = %41
  %46 = load ptr, ptr %7, align 8, !tbaa !8
  %47 = load i32, ptr %11, align 4, !tbaa !10
  %48 = sext i32 %47 to i64
  %49 = getelementptr inbounds i64, ptr %46, i64 %48
  %50 = load i64, ptr %49, align 8, !tbaa !37
  %51 = load ptr, ptr %8, align 8, !tbaa !8
  %52 = load i32, ptr %11, align 4, !tbaa !10
  %53 = sext i32 %52 to i64
  %54 = getelementptr inbounds i64, ptr %51, i64 %53
  %55 = load i64, ptr %54, align 8, !tbaa !37
  %56 = xor i64 %50, %55
  %57 = load ptr, ptr %6, align 8, !tbaa !8
  %58 = load i32, ptr %11, align 4, !tbaa !10
  %59 = sext i32 %58 to i64
  %60 = getelementptr inbounds i64, ptr %57, i64 %59
  store i64 %56, ptr %60, align 8, !tbaa !37
  br label %61

61:                                               ; preds = %45
  %62 = load i32, ptr %11, align 4, !tbaa !10
  %63 = add nsw i32 %62, 1
  store i32 %63, ptr %11, align 4, !tbaa !10
  br label %41, !llvm.loop !337

64:                                               ; preds = %41
  br label %65

65:                                               ; preds = %64, %39
  call void @llvm.lifetime.end.p0(i64 4, ptr %11) #14
  ret void
}

; Function Attrs: inlinehint nounwind uwtable
define internal void @Abc_TtAnd(ptr noundef %0, ptr noundef %1, ptr noundef %2, i32 noundef %3, i32 noundef %4) #2 {
  %6 = alloca ptr, align 8
  %7 = alloca ptr, align 8
  %8 = alloca ptr, align 8
  %9 = alloca i32, align 4
  %10 = alloca i32, align 4
  %11 = alloca i32, align 4
  store ptr %0, ptr %6, align 8, !tbaa !8
  store ptr %1, ptr %7, align 8, !tbaa !8
  store ptr %2, ptr %8, align 8, !tbaa !8
  store i32 %3, ptr %9, align 4, !tbaa !10
  store i32 %4, ptr %10, align 4, !tbaa !10
  call void @llvm.lifetime.start.p0(i64 4, ptr %11) #14
  %12 = load i32, ptr %10, align 4, !tbaa !10
  %13 = icmp ne i32 %12, 0
  br i1 %13, label %14, label %40

14:                                               ; preds = %5
  store i32 0, ptr %11, align 4, !tbaa !10
  br label %15

15:                                               ; preds = %36, %14
  %16 = load i32, ptr %11, align 4, !tbaa !10
  %17 = load i32, ptr %9, align 4, !tbaa !10
  %18 = icmp slt i32 %16, %17
  br i1 %18, label %19, label %39

19:                                               ; preds = %15
  %20 = load ptr, ptr %7, align 8, !tbaa !8
  %21 = load i32, ptr %11, align 4, !tbaa !10
  %22 = sext i32 %21 to i64
  %23 = getelementptr inbounds i64, ptr %20, i64 %22
  %24 = load i64, ptr %23, align 8, !tbaa !37
  %25 = load ptr, ptr %8, align 8, !tbaa !8
  %26 = load i32, ptr %11, align 4, !tbaa !10
  %27 = sext i32 %26 to i64
  %28 = getelementptr inbounds i64, ptr %25, i64 %27
  %29 = load i64, ptr %28, align 8, !tbaa !37
  %30 = and i64 %24, %29
  %31 = xor i64 %30, -1
  %32 = load ptr, ptr %6, align 8, !tbaa !8
  %33 = load i32, ptr %11, align 4, !tbaa !10
  %34 = sext i32 %33 to i64
  %35 = getelementptr inbounds i64, ptr %32, i64 %34
  store i64 %31, ptr %35, align 8, !tbaa !37
  br label %36

36:                                               ; preds = %19
  %37 = load i32, ptr %11, align 4, !tbaa !10
  %38 = add nsw i32 %37, 1
  store i32 %38, ptr %11, align 4, !tbaa !10
  br label %15, !llvm.loop !334

39:                                               ; preds = %15
  br label %65

40:                                               ; preds = %5
  store i32 0, ptr %11, align 4, !tbaa !10
  br label %41

41:                                               ; preds = %61, %40
  %42 = load i32, ptr %11, align 4, !tbaa !10
  %43 = load i32, ptr %9, align 4, !tbaa !10
  %44 = icmp slt i32 %42, %43
  br i1 %44, label %45, label %64

45:                                               ; preds = %41
  %46 = load ptr, ptr %7, align 8, !tbaa !8
  %47 = load i32, ptr %11, align 4, !tbaa !10
  %48 = sext i32 %47 to i64
  %49 = getelementptr inbounds i64, ptr %46, i64 %48
  %50 = load i64, ptr %49, align 8, !tbaa !37
  %51 = load ptr, ptr %8, align 8, !tbaa !8
  %52 = load i32, ptr %11, align 4, !tbaa !10
  %53 = sext i32 %52 to i64
  %54 = getelementptr inbounds i64, ptr %51, i64 %53
  %55 = load i64, ptr %54, align 8, !tbaa !37
  %56 = and i64 %50, %55
  %57 = load ptr, ptr %6, align 8, !tbaa !8
  %58 = load i32, ptr %11, align 4, !tbaa !10
  %59 = sext i32 %58 to i64
  %60 = getelementptr inbounds i64, ptr %57, i64 %59
  store i64 %56, ptr %60, align 8, !tbaa !37
  br label %61

61:                                               ; preds = %45
  %62 = load i32, ptr %11, align 4, !tbaa !10
  %63 = add nsw i32 %62, 1
  store i32 %63, ptr %11, align 4, !tbaa !10
  br label %41, !llvm.loop !335

64:                                               ; preds = %41
  br label %65

65:                                               ; preds = %64, %39
  call void @llvm.lifetime.end.p0(i64 4, ptr %11) #14
  ret void
}

; Function Attrs: inlinehint nounwind uwtable
define internal void @Abc_TtMask(ptr noundef %0, i32 noundef %1, i32 noundef %2) #2 {
  %4 = alloca ptr, align 8
  %5 = alloca i32, align 4
  %6 = alloca i32, align 4
  %7 = alloca i32, align 4
  store ptr %0, ptr %4, align 8, !tbaa !8
  store i32 %1, ptr %5, align 4, !tbaa !10
  store i32 %2, ptr %6, align 4, !tbaa !10
  call void @llvm.lifetime.start.p0(i64 4, ptr %7) #14
  store i32 0, ptr %7, align 4, !tbaa !10
  br label %8

8:                                                ; preds = %45, %3
  %9 = load i32, ptr %7, align 4, !tbaa !10
  %10 = load i32, ptr %5, align 4, !tbaa !10
  %11 = icmp slt i32 %9, %10
  br i1 %11, label %12, label %48

12:                                               ; preds = %8
  %13 = load i32, ptr %6, align 4, !tbaa !10
  %14 = load i32, ptr %7, align 4, !tbaa !10
  %15 = add nsw i32 %14, 1
  %16 = mul nsw i32 %15, 64
  %17 = icmp sge i32 %13, %16
  br i1 %17, label %18, label %23

18:                                               ; preds = %12
  %19 = load ptr, ptr %4, align 8, !tbaa !8
  %20 = load i32, ptr %7, align 4, !tbaa !10
  %21 = sext i32 %20 to i64
  %22 = getelementptr inbounds i64, ptr %19, i64 %21
  store i64 -1, ptr %22, align 8, !tbaa !37
  br label %44

23:                                               ; preds = %12
  %24 = load i32, ptr %6, align 4, !tbaa !10
  %25 = load i32, ptr %7, align 4, !tbaa !10
  %26 = mul nsw i32 %25, 64
  %27 = icmp sgt i32 %24, %26
  br i1 %27, label %28, label %38

28:                                               ; preds = %23
  %29 = load i32, ptr %6, align 4, !tbaa !10
  %30 = load i32, ptr %7, align 4, !tbaa !10
  %31 = mul nsw i32 %30, 64
  %32 = sub nsw i32 %29, %31
  %33 = call i64 @Abc_Tt6Mask(i32 noundef %32)
  %34 = load ptr, ptr %4, align 8, !tbaa !8
  %35 = load i32, ptr %7, align 4, !tbaa !10
  %36 = sext i32 %35 to i64
  %37 = getelementptr inbounds i64, ptr %34, i64 %36
  store i64 %33, ptr %37, align 8, !tbaa !37
  br label %43

38:                                               ; preds = %23
  %39 = load ptr, ptr %4, align 8, !tbaa !8
  %40 = load i32, ptr %7, align 4, !tbaa !10
  %41 = sext i32 %40 to i64
  %42 = getelementptr inbounds i64, ptr %39, i64 %41
  store i64 0, ptr %42, align 8, !tbaa !37
  br label %43

43:                                               ; preds = %38, %28
  br label %44

44:                                               ; preds = %43, %18
  br label %45

45:                                               ; preds = %44
  %46 = load i32, ptr %7, align 4, !tbaa !10
  %47 = add nsw i32 %46, 1
  store i32 %47, ptr %7, align 4, !tbaa !10
  br label %8, !llvm.loop !219

48:                                               ; preds = %8
  call void @llvm.lifetime.end.p0(i64 4, ptr %7) #14
  ret void
}

; Function Attrs: inlinehint nounwind uwtable
define internal void @Abc_TtCopy(ptr noundef %0, ptr noundef %1, i32 noundef %2, i32 noundef %3) #2 {
  %5 = alloca ptr, align 8
  %6 = alloca ptr, align 8
  %7 = alloca i32, align 4
  %8 = alloca i32, align 4
  %9 = alloca i32, align 4
  store ptr %0, ptr %5, align 8, !tbaa !8
  store ptr %1, ptr %6, align 8, !tbaa !8
  store i32 %2, ptr %7, align 4, !tbaa !10
  store i32 %3, ptr %8, align 4, !tbaa !10
  call void @llvm.lifetime.start.p0(i64 4, ptr %9) #14
  %10 = load i32, ptr %8, align 4, !tbaa !10
  %11 = icmp ne i32 %10, 0
  br i1 %11, label %12, label %32

12:                                               ; preds = %4
  store i32 0, ptr %9, align 4, !tbaa !10
  br label %13

13:                                               ; preds = %28, %12
  %14 = load i32, ptr %9, align 4, !tbaa !10
  %15 = load i32, ptr %7, align 4, !tbaa !10
  %16 = icmp slt i32 %14, %15
  br i1 %16, label %17, label %31

17:                                               ; preds = %13
  %18 = load ptr, ptr %6, align 8, !tbaa !8
  %19 = load i32, ptr %9, align 4, !tbaa !10
  %20 = sext i32 %19 to i64
  %21 = getelementptr inbounds i64, ptr %18, i64 %20
  %22 = load i64, ptr %21, align 8, !tbaa !37
  %23 = xor i64 %22, -1
  %24 = load ptr, ptr %5, align 8, !tbaa !8
  %25 = load i32, ptr %9, align 4, !tbaa !10
  %26 = sext i32 %25 to i64
  %27 = getelementptr inbounds i64, ptr %24, i64 %26
  store i64 %23, ptr %27, align 8, !tbaa !37
  br label %28

28:                                               ; preds = %17
  %29 = load i32, ptr %9, align 4, !tbaa !10
  %30 = add nsw i32 %29, 1
  store i32 %30, ptr %9, align 4, !tbaa !10
  br label %13, !llvm.loop !332

31:                                               ; preds = %13
  br label %51

32:                                               ; preds = %4
  store i32 0, ptr %9, align 4, !tbaa !10
  br label %33

33:                                               ; preds = %47, %32
  %34 = load i32, ptr %9, align 4, !tbaa !10
  %35 = load i32, ptr %7, align 4, !tbaa !10
  %36 = icmp slt i32 %34, %35
  br i1 %36, label %37, label %50

37:                                               ; preds = %33
  %38 = load ptr, ptr %6, align 8, !tbaa !8
  %39 = load i32, ptr %9, align 4, !tbaa !10
  %40 = sext i32 %39 to i64
  %41 = getelementptr inbounds i64, ptr %38, i64 %40
  %42 = load i64, ptr %41, align 8, !tbaa !37
  %43 = load ptr, ptr %5, align 8, !tbaa !8
  %44 = load i32, ptr %9, align 4, !tbaa !10
  %45 = sext i32 %44 to i64
  %46 = getelementptr inbounds i64, ptr %43, i64 %45
  store i64 %42, ptr %46, align 8, !tbaa !37
  br label %47

47:                                               ; preds = %37
  %48 = load i32, ptr %9, align 4, !tbaa !10
  %49 = add nsw i32 %48, 1
  store i32 %49, ptr %9, align 4, !tbaa !10
  br label %33, !llvm.loop !333

50:                                               ; preds = %33
  br label %51

51:                                               ; preds = %50, %31
  call void @llvm.lifetime.end.p0(i64 4, ptr %9) #14
  ret void
}

; Function Attrs: nounwind uwtable
define internal i32 @Abc_TtIsStairDecomposable(ptr noundef %0, i32 noundef %1, ptr noundef %2, i32 noundef %3, ptr noundef %4) #0 {
  %6 = alloca i32, align 4
  %7 = alloca ptr, align 8
  %8 = alloca i32, align 4
  %9 = alloca ptr, align 8
  %10 = alloca i32, align 4
  %11 = alloca ptr, align 8
  %12 = alloca i32, align 4
  %13 = alloca i32, align 4
  %14 = alloca [4 x i64], align 16
  %15 = alloca [4 x i64], align 16
  %16 = alloca i32, align 4
  store ptr %0, ptr %7, align 8, !tbaa !8
  store i32 %1, ptr %8, align 4, !tbaa !10
  store ptr %2, ptr %9, align 8, !tbaa !12
  store i32 %3, ptr %10, align 4, !tbaa !10
  store ptr %4, ptr %11, align 8, !tbaa !12
  call void @llvm.lifetime.start.p0(i64 4, ptr %12) #14
  call void @llvm.lifetime.start.p0(i64 4, ptr %13) #14
  call void @llvm.lifetime.start.p0(i64 32, ptr %14) #14
  call void @llvm.lifetime.start.p0(i64 32, ptr %15) #14
  %17 = getelementptr inbounds [4 x i64], ptr %15, i64 0, i64 0
  %18 = load ptr, ptr %7, align 8, !tbaa !8
  %19 = load i32, ptr %8, align 4, !tbaa !10
  call void @Abc_TtCopy(ptr noundef %17, ptr noundef %18, i32 noundef %19, i32 noundef 0)
  %20 = getelementptr inbounds [4 x i64], ptr %14, i64 0, i64 0
  %21 = load i32, ptr %8, align 4, !tbaa !10
  %22 = load i32, ptr %8, align 4, !tbaa !10
  %23 = mul nsw i32 %22, 64
  call void @Abc_TtMask(ptr noundef %20, i32 noundef %21, i32 noundef %23)
  store i32 0, ptr %12, align 4, !tbaa !10
  br label %24

24:                                               ; preds = %85, %5
  %25 = load i32, ptr %12, align 4, !tbaa !10
  %26 = load i32, ptr %10, align 4, !tbaa !10
  %27 = icmp slt i32 %25, %26
  br i1 %27, label %28, label %88

28:                                               ; preds = %24
  %29 = getelementptr inbounds [4 x i64], ptr %15, i64 0, i64 0
  %30 = getelementptr inbounds [4 x i64], ptr %14, i64 0, i64 0
  %31 = load i32, ptr %8, align 4, !tbaa !10
  %32 = load ptr, ptr %9, align 8, !tbaa !12
  %33 = load i32, ptr %12, align 4, !tbaa !10
  %34 = sext i32 %33 to i64
  %35 = getelementptr inbounds i32, ptr %32, i64 %34
  %36 = load i32, ptr %35, align 4, !tbaa !10
  %37 = call i32 @Abc_TtIsTopDecomposable(ptr noundef %29, ptr noundef %30, i32 noundef %31, i32 noundef %36)
  store i32 %37, ptr %13, align 4, !tbaa !10
  %38 = load i32, ptr %13, align 4, !tbaa !10
  %39 = icmp ne i32 %38, 0
  br i1 %39, label %41, label %40

40:                                               ; preds = %28
  store i32 0, ptr %6, align 4
  store i32 1, ptr %16, align 4
  br label %89

41:                                               ; preds = %28
  %42 = load i32, ptr %13, align 4, !tbaa !10
  %43 = load ptr, ptr %11, align 8, !tbaa !12
  %44 = load i32, ptr %12, align 4, !tbaa !10
  %45 = sext i32 %44 to i64
  %46 = getelementptr inbounds i32, ptr %43, i64 %45
  store i32 %42, ptr %46, align 4, !tbaa !10
  %47 = load i32, ptr %13, align 4, !tbaa !10
  switch i32 %47, label %84 [
    i32 1, label %48
    i32 4, label %48
    i32 2, label %60
    i32 3, label %60
    i32 5, label %72
  ]

48:                                               ; preds = %41, %41
  %49 = getelementptr inbounds [4 x i64], ptr %14, i64 0, i64 0
  %50 = getelementptr inbounds [4 x i64], ptr %14, i64 0, i64 0
  %51 = load ptr, ptr %9, align 8, !tbaa !12
  %52 = load i32, ptr %12, align 4, !tbaa !10
  %53 = sext i32 %52 to i64
  %54 = getelementptr inbounds i32, ptr %51, i64 %53
  %55 = load i32, ptr %54, align 4, !tbaa !10
  %56 = shl i32 %55, 2
  %57 = sext i32 %56 to i64
  %58 = getelementptr inbounds [32 x i64], ptr @s_Truths8, i64 0, i64 %57
  %59 = load i32, ptr %8, align 4, !tbaa !10
  call void @Abc_TtAnd(ptr noundef %49, ptr noundef %50, ptr noundef %58, i32 noundef %59, i32 noundef 0)
  br label %84

60:                                               ; preds = %41, %41
  %61 = getelementptr inbounds [4 x i64], ptr %14, i64 0, i64 0
  %62 = getelementptr inbounds [4 x i64], ptr %14, i64 0, i64 0
  %63 = load ptr, ptr %9, align 8, !tbaa !12
  %64 = load i32, ptr %12, align 4, !tbaa !10
  %65 = sext i32 %64 to i64
  %66 = getelementptr inbounds i32, ptr %63, i64 %65
  %67 = load i32, ptr %66, align 4, !tbaa !10
  %68 = shl i32 %67, 2
  %69 = sext i32 %68 to i64
  %70 = getelementptr inbounds [32 x i64], ptr @s_Truths8Neg, i64 0, i64 %69
  %71 = load i32, ptr %8, align 4, !tbaa !10
  call void @Abc_TtAnd(ptr noundef %61, ptr noundef %62, ptr noundef %70, i32 noundef %71, i32 noundef 0)
  br label %84

72:                                               ; preds = %41
  %73 = getelementptr inbounds [4 x i64], ptr %15, i64 0, i64 0
  %74 = getelementptr inbounds [4 x i64], ptr %15, i64 0, i64 0
  %75 = load ptr, ptr %9, align 8, !tbaa !12
  %76 = load i32, ptr %12, align 4, !tbaa !10
  %77 = sext i32 %76 to i64
  %78 = getelementptr inbounds i32, ptr %75, i64 %77
  %79 = load i32, ptr %78, align 4, !tbaa !10
  %80 = shl i32 %79, 2
  %81 = sext i32 %80 to i64
  %82 = getelementptr inbounds [32 x i64], ptr @s_Truths8, i64 0, i64 %81
  %83 = load i32, ptr %8, align 4, !tbaa !10
  call void @Abc_TtXor(ptr noundef %73, ptr noundef %74, ptr noundef %82, i32 noundef %83, i32 noundef 0)
  br label %84

84:                                               ; preds = %41, %72, %60, %48
  br label %85

85:                                               ; preds = %84
  %86 = load i32, ptr %12, align 4, !tbaa !10
  %87 = add nsw i32 %86, 1
  store i32 %87, ptr %12, align 4, !tbaa !10
  br label %24, !llvm.loop !330

88:                                               ; preds = %24
  store i32 1, ptr %6, align 4
  store i32 1, ptr %16, align 4
  br label %89

89:                                               ; preds = %88, %40
  call void @llvm.lifetime.end.p0(i64 32, ptr %15) #14
  call void @llvm.lifetime.end.p0(i64 32, ptr %14) #14
  call void @llvm.lifetime.end.p0(i64 4, ptr %13) #14
  call void @llvm.lifetime.end.p0(i64 4, ptr %12) #14
  %90 = load i32, ptr %6, align 4
  ret i32 %90
}