; Function Attrs: nofree norecurse nosync nounwind memory(read, argmem: readwrite, inaccessiblemem: none) uwtable
define internal fastcc range(i32 0, 2) i32 @Abc_TtIsStairDecomposable(ptr noundef readonly captures(none) %0, i32 noundef %1, ptr noundef readonly captures(none) %2, i32 noundef %3, ptr noundef writeonly captures(none) %4) unnamed_addr #4 {
  %6 = alloca [4 x i64], align 16
  %7 = alloca [4 x i64], align 16
  call void @llvm.lifetime.start.p0(i64 32, ptr nonnull %6) #29
  call void @llvm.lifetime.start.p0(i64 32, ptr nonnull %7) #29
  %8 = icmp sgt i32 %1, 0
  br i1 %8, label %.lr.ph.preheader.i, label %Abc_TtMask.exit.thread

.lr.ph.preheader.i:                               ; preds = %5
  %wide.trip.count.i = zext nneg i32 %1 to i64
  %9 = shl nuw nsw i64 %wide.trip.count.i, 3
  call void @llvm.memcpy.p0.p0.i64(ptr nonnull align 16 %7, ptr align 8 %0, i64 %9, i1 false), !tbaa !3
  %10 = shl nsw i32 %1, 6
  %11 = zext nneg i32 %10 to i64
  br label %12

12:                                               ; preds = %12, %.lr.ph.preheader.i
  %indvars.iv.i28 = phi i64 [ 0, %.lr.ph.preheader.i ], [ %indvars.iv.next.i29, %12 ]
  %indvars.iv.next.i29 = add nuw nsw i64 %indvars.iv.i28, 1
  %13 = shl nsw i64 %indvars.iv.next.i29, 6
  %.not.i = icmp samesign ule i64 %13, %11
  %14 = shl nsw i64 %indvars.iv.i28, 6
  %15 = icmp samesign ult i64 %14, %11
  %narrow = select i1 %.not.i, i1 true, i1 %15
  %.sink.i = sext i1 %narrow to i64
  %16 = getelementptr inbounds nuw i64, ptr %6, i64 %indvars.iv.i28
  store i64 %.sink.i, ptr %16, align 8, !tbaa !3
  %exitcond.not.i30 = icmp eq i64 %indvars.iv.next.i29, %wide.trip.count.i
  br i1 %exitcond.not.i30, label %Abc_TtMask.exit, label %12, !llvm.loop !113

Abc_TtMask.exit:                                  ; preds = %12
  %17 = icmp sgt i32 %3, 0
  br i1 %17, label %.lr.ph, label %._crit_edge

Abc_TtMask.exit.thread:                           ; preds = %5
  %18 = icmp sgt i32 %3, 0
  br i1 %18, label %.lr.ph.split.preheader, label %._crit_edge

.lr.ph:                                           ; preds = %Abc_TtMask.exit
  %wide.trip.count.i45 = zext nneg i32 %1 to i64
  %wide.trip.count64 = zext nneg i32 %3 to i64
  br label %.lr.ph.split.us

.lr.ph.split.preheader:                           ; preds = %Abc_TtMask.exit.thread
  %wide.trip.count = zext nneg i32 %3 to i64
  br label %.lr.ph.split

.lr.ph.split.us:                                  ; preds = %.lr.ph, %Abc_TtAnd.exit.us
  %indvars.iv61 = phi i64 [ 0, %.lr.ph ], [ %indvars.iv.next62, %Abc_TtAnd.exit.us ]
  %19 = getelementptr inbounds nuw i32, ptr %2, i64 %indvars.iv61
  %20 = load i32, ptr %19, align 4, !tbaa !7
  %21 = call fastcc i32 @Abc_TtIsTopDecomposable(ptr noundef nonnull %7, ptr noundef %6, i32 noundef %1, i32 noundef %20)
  %.not.us = icmp eq i32 %21, 0
  br i1 %.not.us, label %._crit_edge, label %22

22:                                               ; preds = %.lr.ph.split.us
  %23 = getelementptr inbounds nuw i32, ptr %4, i64 %indvars.iv61
  store i32 %21, ptr %23, align 4, !tbaa !7
  switch i32 %21, label %default.unreachable [
    i32 1, label %.lr.ph.preheader.i31.us
    i32 4, label %.lr.ph.preheader.i31.us
    i32 2, label %.lr.ph.preheader.i37.us
    i32 3, label %.lr.ph.preheader.i37.us
    i32 5, label %.lr.ph.preheader.i44.us
  ]

.lr.ph.preheader.i44.us:                          ; preds = %22
  %24 = load i32, ptr %19, align 4, !tbaa !7
  %25 = shl i32 %24, 2
  %26 = sext i32 %25 to i64
  %27 = getelementptr inbounds [32 x i64], ptr @s_Truths8, i64 0, i64 %26
  br label %.lr.ph.i46.us

.lr.ph.i46.us:                                    ; preds = %.lr.ph.i46.us, %.lr.ph.preheader.i44.us
  %indvars.iv.i47.us = phi i64 [ 0, %.lr.ph.preheader.i44.us ], [ %indvars.iv.next.i48.us, %.lr.ph.i46.us ]
  %28 = getelementptr inbounds nuw i64, ptr %7, i64 %indvars.iv.i47.us
  %29 = load i64, ptr %28, align 8, !tbaa !3
  %30 = getelementptr inbounds nuw i64, ptr %27, i64 %indvars.iv.i47.us
  %31 = load i64, ptr %30, align 8, !tbaa !3
  %32 = xor i64 %31, %29
  store i64 %32, ptr %28, align 8, !tbaa !3
  %indvars.iv.next.i48.us = add nuw nsw i64 %indvars.iv.i47.us, 1
  %exitcond.not.i49.us = icmp eq i64 %indvars.iv.next.i48.us, %wide.trip.count.i45
  br i1 %exitcond.not.i49.us, label %Abc_TtAnd.exit.us, label %.lr.ph.i46.us, !llvm.loop !320

.lr.ph.preheader.i37.us:                          ; preds = %22, %22
  %33 = load i32, ptr %19, align 4, !tbaa !7
  %34 = shl i32 %33, 2
  %35 = sext i32 %34 to i64
  %36 = getelementptr inbounds [32 x i64], ptr @s_Truths8Neg, i64 0, i64 %35
  br label %.lr.ph.i39.us

.lr.ph.i39.us:                                    ; preds = %.lr.ph.i39.us, %.lr.ph.preheader.i37.us
  %indvars.iv.i40.us = phi i64 [ 0, %.lr.ph.preheader.i37.us ], [ %indvars.iv.next.i41.us, %.lr.ph.i39.us ]
  %37 = getelementptr inbounds nuw i64, ptr %6, i64 %indvars.iv.i40.us
  %38 = load i64, ptr %37, align 8, !tbaa !3
  %39 = getelementptr inbounds nuw i64, ptr %36, i64 %indvars.iv.i40.us
  %40 = load i64, ptr %39, align 8, !tbaa !3
  %41 = and i64 %40, %38
  store i64 %41, ptr %37, align 8, !tbaa !3
  %indvars.iv.next.i41.us = add nuw nsw i64 %indvars.iv.i40.us, 1
  %exitcond.not.i42.us = icmp eq i64 %indvars.iv.next.i41.us, %wide.trip.count.i45
  br i1 %exitcond.not.i42.us, label %Abc_TtAnd.exit.us, label %.lr.ph.i39.us, !llvm.loop !321

.lr.ph.preheader.i31.us:                          ; preds = %22, %22
  %42 = load i32, ptr %19, align 4, !tbaa !7
  %43 = shl i32 %42, 2
  %44 = sext i32 %43 to i64
  %45 = getelementptr inbounds [32 x i64], ptr @s_Truths8, i64 0, i64 %44
  br label %.lr.ph.i33.us

.lr.ph.i33.us:                                    ; preds = %.lr.ph.i33.us, %.lr.ph.preheader.i31.us
  %indvars.iv.i34.us = phi i64 [ 0, %.lr.ph.preheader.i31.us ], [ %indvars.iv.next.i35.us, %.lr.ph.i33.us ]
  %46 = getelementptr inbounds nuw i64, ptr %6, i64 %indvars.iv.i34.us
  %47 = load i64, ptr %46, align 8, !tbaa !3
  %48 = getelementptr inbounds nuw i64, ptr %45, i64 %indvars.iv.i34.us
  %49 = load i64, ptr %48, align 8, !tbaa !3
  %50 = and i64 %49, %47
  store i64 %50, ptr %46, align 8, !tbaa !3
  %indvars.iv.next.i35.us = add nuw nsw i64 %indvars.iv.i34.us, 1
  %exitcond.not.i36.us = icmp eq i64 %indvars.iv.next.i35.us, %wide.trip.count.i45
  br i1 %exitcond.not.i36.us, label %Abc_TtAnd.exit.us, label %.lr.ph.i33.us, !llvm.loop !321

Abc_TtAnd.exit.us:                                ; preds = %.lr.ph.i46.us, %.lr.ph.i39.us, %.lr.ph.i33.us
  %indvars.iv.next62 = add nuw nsw i64 %indvars.iv61, 1
  %exitcond65.not = icmp eq i64 %indvars.iv.next62, %wide.trip.count64
  br i1 %exitcond65.not, label %._crit_edge, label %.lr.ph.split.us, !llvm.loop !322

.lr.ph.split:                                     ; preds = %.lr.ph.split.preheader, %Abc_TtAnd.exit
  %indvars.iv = phi i64 [ 0, %.lr.ph.split.preheader ], [ %indvars.iv.next, %Abc_TtAnd.exit ]
  %51 = getelementptr inbounds nuw i32, ptr %2, i64 %indvars.iv
  %52 = load i32, ptr %51, align 4, !tbaa !7
  %53 = call fastcc i32 @Abc_TtIsTopDecomposable(ptr noundef nonnull %7, ptr noundef %6, i32 noundef %1, i32 noundef %52)
  %.not = icmp eq i32 %53, 0
  br i1 %.not, label %._crit_edge, label %Abc_TtAnd.exit

Abc_TtAnd.exit:                                   ; preds = %.lr.ph.split
  %54 = getelementptr inbounds nuw i32, ptr %4, i64 %indvars.iv
  store i32 %53, ptr %54, align 4, !tbaa !7
  %indvars.iv.next = add nuw nsw i64 %indvars.iv, 1
  %exitcond.not = icmp eq i64 %indvars.iv.next, %wide.trip.count
  br i1 %exitcond.not, label %._crit_edge, label %.lr.ph.split, !llvm.loop !322

default.unreachable:                              ; preds = %22
  unreachable

._crit_edge:                                      ; preds = %.lr.ph.split, %Abc_TtAnd.exit, %.lr.ph.split.us, %Abc_TtAnd.exit.us, %Abc_TtMask.exit.thread, %Abc_TtMask.exit
  %.0 = phi i32 [ 1, %Abc_TtMask.exit ], [ 1, %Abc_TtMask.exit.thread ], [ 1, %Abc_TtAnd.exit.us ], [ 0, %.lr.ph.split.us ], [ 1, %Abc_TtAnd.exit ], [ 0, %.lr.ph.split ]
  call void @llvm.lifetime.end.p0(i64 32, ptr nonnull %7) #29
  call void @llvm.lifetime.end.p0(i64 32, ptr nonnull %6) #29
  ret i32 %.0
}